; ModuleID = '15/2262.c'
source_filename = "15/2262.c"
target datalayout = "e-m:e-p270:32:32-p271:32:32-p272:64:64-i64:64-f80:128-n8:16:32:64-S128"
target triple = "x86_64-pc-linux-gnu"

@.str = private unnamed_addr constant [4 x i8] c"%d\0A\00", align 1
@.str.1 = private unnamed_addr constant [3 x i8] c"%d\00", align 1

; Function Attrs: noinline nounwind uwtable
define dso_local i32 @main() #0 {
  %1 = alloca i32, align 4
  %2 = alloca [1000 x i32], align 16
  %3 = alloca i32, align 4
  %4 = alloca i32, align 4
  %5 = alloca i32, align 4
  %6 = alloca i32, align 4
  %7 = alloca i32, align 4
  %8 = alloca i32, align 4
  %9 = alloca i32, align 4
  %10 = alloca i32, align 4
  store i32 0, i32* %1, align 4
  %11 = bitcast [1000 x i32]* %2 to i8*
  call void @llvm.memset.p0i8.i64(i8* align 16 %11, i8 0, i64 4000, i1 false)
  store i32 0, i32* %6, align 4
  store i32 0, i32* %7, align 4
  store i32 0, i32* %8, align 4
  store i32 0, i32* %9, align 4
  store i32 0, i32* %10, align 4
  %12 = call i32 (i8*, ...) @__isoc99_scanf(i8* getelementptr inbounds ([4 x i8], [4 x i8]* @.str, i64 0, i64 0), i32* %3)
  store i32 0, i32* %4, align 4
  br label %13

13:                                               ; preds = %73, %0
  %14 = load i32, i32* %4, align 4
  %15 = load i32, i32* %3, align 4
  %16 = icmp slt i32 %14, %15
  br i1 %16, label %17, label %76

17:                                               ; preds = %13
  store i32 0, i32* %5, align 4
  br label %18

18:                                               ; preds = %27, %17
  %19 = load i32, i32* %5, align 4
  %20 = load i32, i32* %3, align 4
  %21 = icmp slt i32 %19, %20
  br i1 %21, label %22, label %30

22:                                               ; preds = %18
  %23 = load i32, i32* %5, align 4
  %24 = sext i32 %23 to i64
  %25 = getelementptr inbounds [1000 x i32], [1000 x i32]* %2, i64 0, i64 %24
  %26 = call i32 (i8*, ...) @__isoc99_scanf(i8* getelementptr inbounds ([3 x i8], [3 x i8]* @.str.1, i64 0, i64 0), i32* %25)
  br label %27

27:                                               ; preds = %22
  %28 = load i32, i32* %5, align 4
  %29 = add nsw i32 %28, 1
  store i32 %29, i32* %5, align 4
  br label %18

30:                                               ; preds = %18
  store i32 0, i32* %5, align 4
  br label %31

31:                                               ; preds = %52, %30
  %32 = load i32, i32* %5, align 4
  %33 = load i32, i32* %3, align 4
  %34 = icmp slt i32 %32, %33
  br i1 %34, label %35, label %55

35:                                               ; preds = %31
  %36 = load i32, i32* %5, align 4
  %37 = sext i32 %36 to i64
  %38 = getelementptr inbounds [1000 x i32], [1000 x i32]* %2, i64 0, i64 %37
  %39 = load i32, i32* %38, align 4
  %40 = icmp eq i32 %39, 0
  br i1 %40, label %41, label %51

41:                                               ; preds = %35
  %42 = load i32, i32* %9, align 4
  %43 = icmp eq i32 %42, 0
  br i1 %43, label %44, label %51

44:                                               ; preds = %41
  %45 = load i32, i32* %6, align 4
  %46 = add nsw i32 %45, 1
  store i32 %46, i32* %6, align 4
  store i32 1, i32* %7, align 4
  %47 = load i32, i32* %5, align 4
  %48 = load i32, i32* %6, align 4
  %49 = sub nsw i32 %47, %48
  %50 = add nsw i32 %49, 1
  store i32 %50, i32* %10, align 4
  br label %51

51:                                               ; preds = %44, %41, %35
  br label %52

52:                                               ; preds = %51
  %53 = load i32, i32* %5, align 4
  %54 = add nsw i32 %53, 1
  store i32 %54, i32* %5, align 4
  br label %31

55:                                               ; preds = %31
  %56 = load i32, i32* %7, align 4
  %57 = icmp eq i32 %56, 1
  br i1 %57, label %58, label %59

58:                                               ; preds = %55
  store i32 1, i32* %9, align 4
  br label %59

59:                                               ; preds = %58, %55
  %60 = load i32, i32* %10, align 4
  %61 = sext i32 %60 to i64
  %62 = getelementptr inbounds [1000 x i32], [1000 x i32]* %2, i64 0, i64 %61
  %63 = load i32, i32* %62, align 4
  %64 = icmp eq i32 %63, 0
  br i1 %64, label %65, label %71

65:                                               ; preds = %59
  %66 = load i32, i32* %7, align 4
  %67 = icmp eq i32 %66, 1
  br i1 %67, label %68, label %71

68:                                               ; preds = %65
  %69 = load i32, i32* %8, align 4
  %70 = add nsw i32 %69, 1
  store i32 %70, i32* %8, align 4
  br label %72

71:                                               ; preds = %65, %59
  br label %73

72:                                               ; preds = %68
  br label %73

73:                                               ; preds = %72, %71
  %74 = load i32, i32* %4, align 4
  %75 = add nsw i32 %74, 1
  store i32 %75, i32* %4, align 4
  br label %13

76:                                               ; preds = %13
  %77 = load i32, i32* %6, align 4
  %78 = sub nsw i32 %77, 2
  %79 = load i32, i32* %8, align 4
  %80 = sub nsw i32 %79, 2
  %81 = mul nsw i32 %78, %80
  %82 = call i32 (i8*, ...) @printf(i8* getelementptr inbounds ([4 x i8], [4 x i8]* @.str, i64 0, i64 0), i32 %81)
  %83 = load i32, i32* %1, align 4
  ret i32 %83
}

; Function Attrs: argmemonly nounwind willreturn
declare void @llvm.memset.p0i8.i64(i8* nocapture writeonly, i8, i64, i1 immarg) #1

declare dso_local i32 @__isoc99_scanf(i8*, ...) #2

declare dso_local i32 @printf(i8*, ...) #2


!llvm.module.flags = !{!0}
!llvm.ident = !{!1}

!0 = !{i32 1, !"wchar_size", i32 4}
!1 = !{!"clang version 10.0.0-4ubuntu1 "}
